; Function Attrs: mustprogress nounwind uwtable
define hidden void @_ZN20ParCompactionManager18push_shadow_regionEm(i64 noundef %0) local_unnamed_addr #0 align 2 {
  %2 = load ptr, ptr @_ZN20ParCompactionManager20_shadow_region_arrayE, align 8
  %3 = load i32, ptr %2, align 8
  %4 = getelementptr inbounds i8, ptr %2, i64 4
  %5 = load i32, ptr %4, align 4
  %6 = icmp eq i32 %3, %5
  br i1 %6, label %7, label %_ZN26GrowableArrayWithAllocatorIm13GrowableArrayImEE4pushERKm.exit

7:                                                ; preds = %1
  %8 = add nsw i32 %3, 1
  %9 = icmp sgt i32 %3, -1
  %10 = xor i32 %3, -2147483648
  %11 = and i32 %10, %8
  %12 = icmp eq i32 %11, 0
  %13 = and i1 %9, %12
  %14 = tail call range(i32 0, 33) i32 @llvm.ctlz.i32(i32 %8, i1 true)
  %15 = sub nuw nsw i32 32, %14
  %16 = shl nuw i32 1, %15
  %.0.i.i.i.i.i = select i1 %13, i32 %8, i32 %16
  tail call void @_ZN26GrowableArrayWithAllocatorIm13GrowableArrayImEE9expand_toEi(ptr noundef nonnull align 8 dereferenceable(16) %2, i32 noundef %.0.i.i.i.i.i)
  %.pre.i.i = load i32, ptr %2, align 8
  br label %_ZN26GrowableArrayWithAllocatorIm13GrowableArrayImEE4pushERKm.exit

_ZN26GrowableArrayWithAllocatorIm13GrowableArrayImEE4pushERKm.exit: ; preds = %1, %7
  %17 = phi i32 [ %.pre.i.i, %7 ], [ %3, %1 ]
  %18 = add nsw i32 %17, 1
  store i32 %18, ptr %2, align 8
  %19 = getelementptr inbounds i8, ptr %2, i64 8
  %20 = load ptr, ptr %19, align 8
  %21 = sext i32 %17 to i64
  %22 = getelementptr inbounds i64, ptr %20, i64 %21
  store i64 %0, ptr %22, align 8
  ret void
}